target datalayout = "e-m:e-p270:32:32-p271:32:32-p272:64:64-i64:64-i128:128-f80:128-n8:16:32:64-S128"
target triple = "x86_64-pc-linux-gnu"

%struct.Abc_Obj_t_ = type { ptr, ptr, i32, i32, %struct.Vec_Int_t_, %struct.Vec_Int_t_, %union.anon, %union.anon.0 }
%struct.Vec_Int_t_ = type { i32, i32, ptr }
%union.anon = type { ptr }
%union.anon.0 = type { ptr }
%struct.Abc_Ntk_t_ = type { i32, i32, ptr, ptr, ptr, ptr, ptr, ptr, ptr, ptr, ptr, ptr, ptr, [11 x i32], i32, i32, i32, i32, ptr, i32, ptr, ptr, i32, i32, i32, double, i32, %struct.Vec_Int_t_, ptr, ptr, ptr, ptr, ptr, float, i32, ptr, ptr, ptr, ptr, ptr, ptr, ptr, ptr, ptr, ptr, ptr, ptr, ptr, ptr, ptr, ptr, ptr, ptr, ptr, ptr, ptr, ptr }
%struct.Vec_Ptr_t_ = type { i32, i32, ptr }

@stdout = external global ptr, align 8
@.str = private unnamed_addr constant [7 x i8] c"%10s: \00", align 1
@.str.1 = private unnamed_addr constant [27 x i8] c"Before = %5d  BDD nodes.  \00", align 1
@.str.2 = private unnamed_addr constant [25 x i8] c"After = %5d  BDD nodes.\0A\00", align 1

; Function Attrs: inlinehint nounwind uwtable
define internal ptr @Vec_PtrEntry(ptr noundef %0, i32 noundef %1) #3 {
  %3 = alloca ptr, align 8
  %4 = alloca i32, align 4
  store ptr %0, ptr %3, align 8, !tbaa !49
  store i32 %1, ptr %4, align 4, !tbaa !12
  %5 = load ptr, ptr %3, align 8, !tbaa !49
  %6 = getelementptr inbounds nuw %struct.Vec_Ptr_t_, ptr %5, i32 0, i32 2
  %7 = load ptr, ptr %6, align 8, !tbaa !42
  %8 = load i32, ptr %4, align 4, !tbaa !12
  %9 = sext i32 %8 to i64
  %10 = getelementptr inbounds ptr, ptr %7, i64 %9
  %11 = load ptr, ptr %10, align 8, !tbaa !44
  ret ptr %11
}

; Function Attrs: inlinehint nounwind uwtable
define internal i32 @Abc_ObjFaninNum(ptr noundef %0) #3 {
  %2 = alloca ptr, align 8
  store ptr %0, ptr %2, align 8, !tbaa !8
  %3 = load ptr, ptr %2, align 8, !tbaa !8
  %4 = getelementptr inbounds nuw %struct.Abc_Obj_t_, ptr %3, i32 0, i32 4
  %5 = getelementptr inbounds nuw %struct.Vec_Int_t_, ptr %4, i32 0, i32 1
  %6 = load i32, ptr %5, align 4, !tbaa !40
  ret i32 %6
}

; Function Attrs: inlinehint nounwind uwtable
define internal i32 @Abc_ObjIsNode(ptr noundef %0) #3 {
  %2 = alloca ptr, align 8
  store ptr %0, ptr %2, align 8, !tbaa !8
  %3 = load ptr, ptr %2, align 8, !tbaa !8
  %4 = getelementptr inbounds nuw %struct.Abc_Obj_t_, ptr %3, i32 0, i32 3
  %5 = load i32, ptr %4, align 4
  %6 = and i32 %5, 15
  %7 = icmp eq i32 %6, 7
  %8 = zext i1 %7 to i32
  ret i32 %8
}

; Function Attrs: inlinehint nounwind uwtable
define internal ptr @Abc_NtkObj(ptr noundef %0, i32 noundef %1) #3 {
  %3 = alloca ptr, align 8
  %4 = alloca i32, align 4
  store ptr %0, ptr %3, align 8, !tbaa !45
  store i32 %1, ptr %4, align 4, !tbaa !12
  %5 = load ptr, ptr %3, align 8, !tbaa !45
  %6 = getelementptr inbounds nuw %struct.Abc_Ntk_t_, ptr %5, i32 0, i32 5
  %7 = load ptr, ptr %6, align 8, !tbaa !41
  %8 = load i32, ptr %4, align 4, !tbaa !12
  %9 = call ptr @Vec_PtrEntry(ptr noundef %7, i32 noundef %8)
  ret ptr %9
}

; Function Attrs: inlinehint nounwind uwtable
define internal i32 @Vec_PtrSize(ptr noundef %0) #3 {
  %2 = alloca ptr, align 8
  store ptr %0, ptr %2, align 8, !tbaa !49
  %3 = load ptr, ptr %2, align 8, !tbaa !49
  %4 = getelementptr inbounds nuw %struct.Vec_Ptr_t_, ptr %3, i32 0, i32 1
  %5 = load i32, ptr %4, align 4, !tbaa !50
  ret i32 %5
}

; Function Attrs: nounwind uwtable
define void @Abc_NtkBddReorder(ptr noundef %0, i32 noundef %1) #0 {
  %3 = alloca ptr, align 8
  %4 = alloca i32, align 4
  %5 = alloca ptr, align 8
  %6 = alloca ptr, align 8
  %7 = alloca i32, align 4
  store ptr %0, ptr %3, align 8, !tbaa !45
  store i32 %1, ptr %4, align 4, !tbaa !12
  call void @llvm.lifetime.start.p0(i64 8, ptr %5) #6
  call void @llvm.lifetime.start.p0(i64 8, ptr %6) #6
  call void @llvm.lifetime.start.p0(i64 4, ptr %7) #6
  %8 = load ptr, ptr %3, align 8, !tbaa !45
  %9 = call i32 @Abc_NtkMinimumBase(ptr noundef %8)
  %10 = load ptr, ptr %3, align 8, !tbaa !45
  %11 = call i32 @Abc_NtkGetFaninMax(ptr noundef %10)
  %12 = call ptr @Extra_ReorderInit(i32 noundef %11, i32 noundef 100)
  store ptr %12, ptr %5, align 8, !tbaa !3
  store i32 0, ptr %7, align 4, !tbaa !12
  br label %13

13:                                               ; preds = %71, %2
  %14 = load i32, ptr %7, align 4, !tbaa !12
  %15 = load ptr, ptr %3, align 8, !tbaa !45
  %16 = getelementptr inbounds nuw %struct.Abc_Ntk_t_, ptr %15, i32 0, i32 5
  %17 = load ptr, ptr %16, align 8, !tbaa !41
  %18 = call i32 @Vec_PtrSize(ptr noundef %17)
  %19 = icmp slt i32 %14, %18
  br i1 %19, label %20, label %24

20:                                               ; preds = %13
  %21 = load ptr, ptr %3, align 8, !tbaa !45
  %22 = load i32, ptr %7, align 4, !tbaa !12
  %23 = call ptr @Abc_NtkObj(ptr noundef %21, i32 noundef %22)
  store ptr %23, ptr %6, align 8, !tbaa !8
  br label %24

24:                                               ; preds = %20, %13
  %25 = phi i1 [ false, %13 ], [ true, %20 ]
  br i1 %25, label %26, label %74

26:                                               ; preds = %24
  %27 = load ptr, ptr %6, align 8, !tbaa !8
  %28 = icmp eq ptr %27, null
  br i1 %28, label %33, label %29

29:                                               ; preds = %26
  %30 = load ptr, ptr %6, align 8, !tbaa !8
  %31 = call i32 @Abc_ObjIsNode(ptr noundef %30)
  %32 = icmp ne i32 %31, 0
  br i1 %32, label %34, label %33

33:                                               ; preds = %29, %26
  br label %70

34:                                               ; preds = %29
  %35 = load ptr, ptr %6, align 8, !tbaa !8
  %36 = call i32 @Abc_ObjFaninNum(ptr noundef %35)
  %37 = icmp slt i32 %36, 3
  br i1 %37, label %38, label %39

38:                                               ; preds = %34
  br label %71

39:                                               ; preds = %34
  %40 = load i32, ptr %4, align 4, !tbaa !12
  %41 = icmp ne i32 %40, 0
  br i1 %41, label %42, label %47

42:                                               ; preds = %39
  %43 = load ptr, ptr @stdout, align 8, !tbaa !46
  %44 = load ptr, ptr %6, align 8, !tbaa !8
  %45 = call ptr @Abc_ObjName(ptr noundef %44)
  %46 = call i32 (ptr, ptr, ...) @fprintf(ptr noundef %43, ptr noundef @.str, ptr noundef %45) #6
  br label %47

47:                                               ; preds = %42, %39
  %48 = load i32, ptr %4, align 4, !tbaa !12
  %49 = icmp ne i32 %48, 0
  br i1 %49, label %50, label %57

50:                                               ; preds = %47
  %51 = load ptr, ptr @stdout, align 8, !tbaa !46
  %52 = load ptr, ptr %6, align 8, !tbaa !8
  %53 = getelementptr inbounds nuw %struct.Abc_Obj_t_, ptr %52, i32 0, i32 6
  %54 = load ptr, ptr %53, align 8, !tbaa !34
  %55 = call i32 @Cudd_DagSize(ptr noundef %54)
  %56 = call i32 (ptr, ptr, ...) @fprintf(ptr noundef %51, ptr noundef @.str.1, i32 noundef %55) #6
  br label %57

57:                                               ; preds = %50, %47
  %58 = load ptr, ptr %5, align 8, !tbaa !3
  %59 = load ptr, ptr %6, align 8, !tbaa !8
  call void @Abc_NodeBddReorder(ptr noundef %58, ptr noundef %59)
  %60 = load i32, ptr %4, align 4, !tbaa !12
  %61 = icmp ne i32 %60, 0
  br i1 %61, label %62, label %69

62:                                               ; preds = %57
  %63 = load ptr, ptr @stdout, align 8, !tbaa !46
  %64 = load ptr, ptr %6, align 8, !tbaa !8
  %65 = getelementptr inbounds nuw %struct.Abc_Obj_t_, ptr %64, i32 0, i32 6
  %66 = load ptr, ptr %65, align 8, !tbaa !34
  %67 = call i32 @Cudd_DagSize(ptr noundef %66)
  %68 = call i32 (ptr, ptr, ...) @fprintf(ptr noundef %63, ptr noundef @.str.2, i32 noundef %67) #6
  br label %69

69:                                               ; preds = %62, %57
  br label %70

70:                                               ; preds = %69, %33
  br label %71

71:                                               ; preds = %70, %38
  %72 = load i32, ptr %7, align 4, !tbaa !12
  %73 = add nsw i32 %72, 1
  store i32 %73, ptr %7, align 4, !tbaa !12
  br label %13, !llvm.loop !48

74:                                               ; preds = %24
  %75 = load ptr, ptr %5, align 8, !tbaa !3
  call void @Extra_ReorderQuit(ptr noundef %75)
  call void @llvm.lifetime.end.p0(i64 4, ptr %7) #6
  call void @llvm.lifetime.end.p0(i64 8, ptr %6) #6
  call void @llvm.lifetime.end.p0(i64 8, ptr %5) #6
  ret void
}