; Function Attrs: nounwind uwtable
define void @Abc_NtkBddReorder(ptr noundef %0, i32 noundef %1) local_unnamed_addr #0 {
  %3 = tail call i32 @Abc_NtkMinimumBase(ptr noundef %0) #7
  %4 = tail call i32 @Abc_NtkGetFaninMax(ptr noundef %0) #7
  %5 = tail call ptr @Extra_ReorderInit(i32 noundef %4, i32 noundef 100) #7
  %6 = getelementptr inbounds nuw i8, ptr %0, i64 32
  %7 = load ptr, ptr %6, align 8, !tbaa !34
  %8 = getelementptr i8, ptr %7, i64 4
  %.val2326 = load i32, ptr %8, align 4, !tbaa !35
  %9 = icmp sgt i32 %.val2326, 0
  br i1 %9, label %.lr.ph, label %.critedge

.lr.ph:                                           ; preds = %2
  %.not19 = icmp eq i32 %1, 0
  br i1 %.not19, label %.lr.ph.split.us, label %.lr.ph.split

.lr.ph.split.us:                                  ; preds = %.lr.ph, %21
  %10 = phi ptr [ %22, %21 ], [ %7, %.lr.ph ]
  %indvars.iv30 = phi i64 [ %indvars.iv.next31, %21 ], [ 0, %.lr.ph ]
  %11 = getelementptr i8, ptr %10, i64 8
  %.val24.val.us = load ptr, ptr %11, align 8, !tbaa !37
  %12 = getelementptr inbounds nuw ptr, ptr %.val24.val.us, i64 %indvars.iv30
  %13 = load ptr, ptr %12, align 8, !tbaa !38
  %14 = icmp eq ptr %13, null
  br i1 %14, label %21, label %15

15:                                               ; preds = %.lr.ph.split.us
  %16 = getelementptr i8, ptr %13, i64 20
  %.val25.us = load i32, ptr %16, align 4
  %17 = and i32 %.val25.us, 15
  %.not.us = icmp eq i32 %17, 7
  br i1 %.not.us, label %18, label %21

18:                                               ; preds = %15
  %19 = getelementptr i8, ptr %13, i64 28
  %.val.us = load i32, ptr %19, align 4, !tbaa !3
  %20 = icmp slt i32 %.val.us, 3
  br i1 %20, label %21, label %.critedge22.us

.critedge22.us:                                   ; preds = %18
  tail call void @Abc_NodeBddReorder(ptr noundef %5, ptr noundef nonnull %13)
  %.pre33 = load ptr, ptr %6, align 8, !tbaa !34
  br label %21

21:                                               ; preds = %.critedge22.us, %18, %15, %.lr.ph.split.us
  %22 = phi ptr [ %.pre33, %.critedge22.us ], [ %10, %18 ], [ %10, %15 ], [ %10, %.lr.ph.split.us ]
  %indvars.iv.next31 = add nuw nsw i64 %indvars.iv30, 1
  %23 = getelementptr i8, ptr %22, i64 4
  %.val23.us = load i32, ptr %23, align 4, !tbaa !35
  %24 = sext i32 %.val23.us to i64
  %25 = icmp slt i64 %indvars.iv.next31, %24
  br i1 %25, label %.lr.ph.split.us, label %.critedge, !llvm.loop !39

.lr.ph.split:                                     ; preds = %.lr.ph, %49
  %26 = phi ptr [ %50, %49 ], [ %7, %.lr.ph ]
  %indvars.iv = phi i64 [ %indvars.iv.next, %49 ], [ 0, %.lr.ph ]
  %27 = getelementptr i8, ptr %26, i64 8
  %.val24.val = load ptr, ptr %27, align 8, !tbaa !37
  %28 = getelementptr inbounds nuw ptr, ptr %.val24.val, i64 %indvars.iv
  %29 = load ptr, ptr %28, align 8, !tbaa !38
  %30 = icmp eq ptr %29, null
  br i1 %30, label %49, label %31

31:                                               ; preds = %.lr.ph.split
  %32 = getelementptr i8, ptr %29, i64 20
  %.val25 = load i32, ptr %32, align 4
  %33 = and i32 %.val25, 15
  %.not = icmp eq i32 %33, 7
  br i1 %.not, label %34, label %49

34:                                               ; preds = %31
  %35 = getelementptr i8, ptr %29, i64 28
  %.val = load i32, ptr %35, align 4, !tbaa !3
  %36 = icmp slt i32 %.val, 3
  br i1 %36, label %49, label %.critedge21

.critedge21:                                      ; preds = %34
  %37 = load ptr, ptr @stdout, align 8, !tbaa !40
  %38 = tail call ptr @Abc_ObjName(ptr noundef nonnull %29) #7
  %39 = tail call i32 (ptr, ptr, ...) @fprintf(ptr noundef %37, ptr noundef nonnull @.str, ptr noundef %38) #7
  %40 = load ptr, ptr @stdout, align 8, !tbaa !40
  %41 = getelementptr inbounds nuw i8, ptr %29, i64 56
  %42 = load ptr, ptr %41, align 8, !tbaa !29
  %43 = tail call i32 @Cudd_DagSize(ptr noundef %42) #7
  %44 = tail call i32 (ptr, ptr, ...) @fprintf(ptr noundef %40, ptr noundef nonnull @.str.1, i32 noundef %43) #7
  tail call void @Abc_NodeBddReorder(ptr noundef %5, ptr noundef nonnull %29)
  %45 = load ptr, ptr @stdout, align 8, !tbaa !40
  %46 = load ptr, ptr %41, align 8, !tbaa !29
  %47 = tail call i32 @Cudd_DagSize(ptr noundef %46) #7
  %48 = tail call i32 (ptr, ptr, ...) @fprintf(ptr noundef %45, ptr noundef nonnull @.str.2, i32 noundef %47) #7
  %.pre = load ptr, ptr %6, align 8, !tbaa !34
  br label %49

49:                                               ; preds = %31, %.lr.ph.split, %.critedge21, %34
  %50 = phi ptr [ %26, %31 ], [ %26, %.lr.ph.split ], [ %.pre, %.critedge21 ], [ %26, %34 ]
  %indvars.iv.next = add nuw nsw i64 %indvars.iv, 1
  %51 = getelementptr i8, ptr %50, i64 4
  %.val23 = load i32, ptr %51, align 4, !tbaa !35
  %52 = sext i32 %.val23 to i64
  %53 = icmp slt i64 %indvars.iv.next, %52
  br i1 %53, label %.lr.ph.split, label %.critedge, !llvm.loop !39

.critedge:                                        ; preds = %49, %21, %2
  tail call void @Extra_ReorderQuit(ptr noundef %5) #7
  ret void
}